target datalayout = "e-m:e-p270:32:32-p271:32:32-p272:64:64-i64:64-i128:128-f80:128-n8:16:32:64-S128"
target triple = "x86_64-pc-linux-gnu"

%struct.Range = type { i32, i32 }
%struct.PayloadContext = type { i32, i32, i32, i32, i32, i32, i32, ptr, ptr, i32, i32, i32, i32, [8192 x i8], i32, i32, i32 }
%struct.AVPacket = type { ptr, i64, i64, ptr, i32, i32, i32, ptr, i32, i64, i64, ptr, ptr, %struct.AVRational }
%struct.AVRational = type { i32, i32 }
%struct.AVStream = type { ptr, i32, i32, ptr, ptr, %struct.AVRational, i64, i64, i64, i32, i32, %struct.AVRational, ptr, %struct.AVRational, %struct.AVPacket, i32, %struct.AVRational, i32 }
%struct.AVCodecParameters = type { i32, i32, i32, ptr, i32, ptr, i32, i32, i64, i32, i32, i32, i32, i32, i32, %struct.AVRational, %struct.AVRational, i32, i32, i32, i32, i32, i32, i32, %struct.AVChannelLayout, i32, i32, i32, i32, i32, i32 }
%struct.AVChannelLayout = type { i32, i32, %union.anon, ptr }
%union.anon = type { i64 }
%struct.AttrNameMap = type { ptr, i16, i32, %struct.Range }

@.str.3 = private unnamed_addr constant [7 x i8] c"config\00", align 1
@.str.4 = private unnamed_addr constant [46 x i8] c"The %s field value is not a valid number: %s\0A\00", align 1
@.str.5 = private unnamed_addr constant [64 x i8] c"fmtp field %s should be in range [%d,%d] (provided value: %lld)\00", align 1
@.str.6 = private unnamed_addr constant [8 x i8] c"bitrate\00", align 1

; Function Attrs: nounwind uwtable
define internal i32 @parse_fmtp_config(ptr noundef %0, ptr noundef %1) #0 {
  %3 = alloca i32, align 4
  %4 = alloca ptr, align 8
  %5 = alloca ptr, align 8
  %6 = alloca i32, align 4
  %7 = alloca i32, align 4
  %8 = alloca i32, align 4
  store ptr %0, ptr %4, align 8, !tbaa !59
  store ptr %1, ptr %5, align 8, !tbaa !13
  call void @llvm.lifetime.start.p0(i64 4, ptr %6) #8
  %9 = load ptr, ptr %5, align 8, !tbaa !13
  %10 = call i32 @ff_hex_to_data(ptr noundef null, ptr noundef %9)
  store i32 %10, ptr %6, align 4, !tbaa !9
  call void @llvm.lifetime.start.p0(i64 4, ptr %7) #8
  %11 = load ptr, ptr %4, align 8, !tbaa !59
  %12 = load i32, ptr %6, align 4, !tbaa !9
  %13 = call i32 @ff_alloc_extradata(ptr noundef %11, i32 noundef %12)
  store i32 %13, ptr %7, align 4, !tbaa !9
  %14 = icmp slt i32 %13, 0
  br i1 %14, label %15, label %17

15:                                               ; preds = %2
  %16 = load i32, ptr %7, align 4, !tbaa !9
  store i32 %16, ptr %3, align 4
  store i32 1, ptr %8, align 4
  br label %23

17:                                               ; preds = %2
  %18 = load ptr, ptr %4, align 8, !tbaa !59
  %19 = getelementptr inbounds nuw %struct.AVCodecParameters, ptr %18, i32 0, i32 3
  %20 = load ptr, ptr %19, align 8, !tbaa !77
  %21 = load ptr, ptr %5, align 8, !tbaa !13
  %22 = call i32 @ff_hex_to_data(ptr noundef %20, ptr noundef %21)
  store i32 0, ptr %3, align 4
  store i32 1, ptr %8, align 4
  br label %23

23:                                               ; preds = %17, %15
  call void @llvm.lifetime.end.p0(i64 4, ptr %7) #8
  call void @llvm.lifetime.end.p0(i64 4, ptr %6) #8
  %24 = load i32, ptr %3, align 4
  ret i32 %24
}

; Function Attrs: nounwind uwtable
define internal i32 @parse_fmtp(ptr noundef %0, ptr noundef %1, ptr noundef %2, ptr noundef %3, ptr noundef %4) #0 {
  %6 = alloca i32, align 4
  %7 = alloca ptr, align 8
  %8 = alloca ptr, align 8
  %9 = alloca ptr, align 8
  %10 = alloca ptr, align 8
  %11 = alloca ptr, align 8
  %12 = alloca ptr, align 8
  %13 = alloca i32, align 4
  %14 = alloca i32, align 4
  %15 = alloca i32, align 4
  %16 = alloca ptr, align 8
  %17 = alloca i64, align 8
  %18 = alloca ptr, align 8
  store ptr %0, ptr %7, align 8, !tbaa !4
  store ptr %1, ptr %8, align 8, !tbaa !30
  store ptr %2, ptr %9, align 8, !tbaa !11
  store ptr %3, ptr %10, align 8, !tbaa !13
  store ptr %4, ptr %11, align 8, !tbaa !13
  call void @llvm.lifetime.start.p0(i64 8, ptr %12) #8
  %19 = load ptr, ptr %8, align 8, !tbaa !30
  %20 = getelementptr inbounds nuw %struct.AVStream, ptr %19, i32 0, i32 3
  %21 = load ptr, ptr %20, align 8, !tbaa !58
  store ptr %21, ptr %12, align 8, !tbaa !59
  call void @llvm.lifetime.start.p0(i64 4, ptr %13) #8
  call void @llvm.lifetime.start.p0(i64 4, ptr %14) #8
  %22 = load ptr, ptr %10, align 8, !tbaa !13
  %23 = call i32 @strcmp(ptr noundef %22, ptr noundef @.str.3) #9
  %24 = icmp ne i32 %23, 0
  br i1 %24, label %34, label %25

25:                                               ; preds = %5
  %26 = load ptr, ptr %12, align 8, !tbaa !59
  %27 = load ptr, ptr %11, align 8, !tbaa !13
  %28 = call i32 @parse_fmtp_config(ptr noundef %26, ptr noundef %27)
  store i32 %28, ptr %13, align 4, !tbaa !9
  %29 = load i32, ptr %13, align 4, !tbaa !9
  %30 = icmp slt i32 %29, 0
  br i1 %30, label %31, label %33

31:                                               ; preds = %25
  %32 = load i32, ptr %13, align 4, !tbaa !9
  store i32 %32, ptr %6, align 4
  store i32 1, ptr %15, align 4
  br label %176

33:                                               ; preds = %25
  br label %34

34:                                               ; preds = %33, %5
  %35 = load ptr, ptr %12, align 8, !tbaa !59
  %36 = getelementptr inbounds nuw %struct.AVCodecParameters, ptr %35, i32 0, i32 1
  %37 = load i32, ptr %36, align 4, !tbaa !60
  %38 = icmp eq i32 %37, 86018
  br i1 %38, label %39, label %175

39:                                               ; preds = %34
  store i32 0, ptr %14, align 4, !tbaa !9
  br label %40

40:                                               ; preds = %160, %39
  %41 = load i32, ptr %14, align 4, !tbaa !9
  %42 = sext i32 %41 to i64
  %43 = getelementptr inbounds [8 x %struct.AttrNameMap], ptr @attr_names, i64 0, i64 %42
  %44 = getelementptr inbounds nuw %struct.AttrNameMap, ptr %43, i32 0, i32 0
  %45 = load ptr, ptr %44, align 8, !tbaa !63
  %46 = icmp ne ptr %45, null
  br i1 %46, label %47, label %163

47:                                               ; preds = %40
  %48 = load ptr, ptr %10, align 8, !tbaa !13
  %49 = load i32, ptr %14, align 4, !tbaa !9
  %50 = sext i32 %49 to i64
  %51 = getelementptr inbounds [8 x %struct.AttrNameMap], ptr @attr_names, i64 0, i64 %50
  %52 = getelementptr inbounds nuw %struct.AttrNameMap, ptr %51, i32 0, i32 0
  %53 = load ptr, ptr %52, align 8, !tbaa !63
  %54 = call i32 @av_strcasecmp(ptr noundef %48, ptr noundef %53)
  %55 = icmp ne i32 %54, 0
  br i1 %55, label %159, label %56

56:                                               ; preds = %47
  %57 = load i32, ptr %14, align 4, !tbaa !9
  %58 = sext i32 %57 to i64
  %59 = getelementptr inbounds [8 x %struct.AttrNameMap], ptr @attr_names, i64 0, i64 %58
  %60 = getelementptr inbounds nuw %struct.AttrNameMap, ptr %59, i32 0, i32 1
  %61 = load i16, ptr %60, align 8, !tbaa !66
  %62 = zext i16 %61 to i32
  %63 = icmp eq i32 %62, 0
  br i1 %63, label %64, label %130

64:                                               ; preds = %56
  call void @llvm.lifetime.start.p0(i64 8, ptr %16) #8
  store ptr null, ptr %16, align 8, !tbaa !13
  call void @llvm.lifetime.start.p0(i64 8, ptr %17) #8
  %65 = load ptr, ptr %11, align 8, !tbaa !13
  %66 = call i64 @strtoll(ptr noundef %65, ptr noundef %16, i32 noundef 10) #8
  store i64 %66, ptr %17, align 8, !tbaa !67
  %67 = load ptr, ptr %16, align 8, !tbaa !13
  %68 = load ptr, ptr %11, align 8, !tbaa !13
  %69 = icmp eq ptr %67, %68
  br i1 %69, label %76, label %70

70:                                               ; preds = %64
  %71 = load ptr, ptr %16, align 8, !tbaa !13
  %72 = getelementptr inbounds i8, ptr %71, i64 0
  %73 = load i8, ptr %72, align 1, !tbaa !69
  %74 = sext i8 %73 to i32
  %75 = icmp ne i32 %74, 0
  br i1 %75, label %76, label %80

76:                                               ; preds = %70, %64
  %77 = load ptr, ptr %7, align 8, !tbaa !4
  %78 = load ptr, ptr %10, align 8, !tbaa !13
  %79 = load ptr, ptr %11, align 8, !tbaa !13
  call void (ptr, i32, ptr, ...) @av_log(ptr noundef %77, i32 noundef 16, ptr noundef @.str.4, ptr noundef %78, ptr noundef %79)
  store i32 -1094995529, ptr %6, align 4
  store i32 1, ptr %15, align 4
  br label %127

80:                                               ; preds = %70
  %81 = load i64, ptr %17, align 8, !tbaa !67
  %82 = load i32, ptr %14, align 4, !tbaa !9
  %83 = sext i32 %82 to i64
  %84 = getelementptr inbounds [8 x %struct.AttrNameMap], ptr @attr_names, i64 0, i64 %83
  %85 = getelementptr inbounds nuw %struct.AttrNameMap, ptr %84, i32 0, i32 3
  %86 = getelementptr inbounds nuw %struct.Range, ptr %85, i32 0, i32 0
  %87 = load i32, ptr %86, align 8, !tbaa !70
  %88 = sext i32 %87 to i64
  %89 = icmp slt i64 %81, %88
  br i1 %89, label %100, label %90

90:                                               ; preds = %80
  %91 = load i64, ptr %17, align 8, !tbaa !67
  %92 = load i32, ptr %14, align 4, !tbaa !9
  %93 = sext i32 %92 to i64
  %94 = getelementptr inbounds [8 x %struct.AttrNameMap], ptr @attr_names, i64 0, i64 %93
  %95 = getelementptr inbounds nuw %struct.AttrNameMap, ptr %94, i32 0, i32 3
  %96 = getelementptr inbounds nuw %struct.Range, ptr %95, i32 0, i32 1
  %97 = load i32, ptr %96, align 4, !tbaa !71
  %98 = sext i32 %97 to i64
  %99 = icmp sgt i64 %91, %98
  br i1 %99, label %100, label %116

100:                                              ; preds = %90, %80
  %101 = load ptr, ptr %7, align 8, !tbaa !4
  %102 = load ptr, ptr %10, align 8, !tbaa !13
  %103 = load i32, ptr %14, align 4, !tbaa !9
  %104 = sext i32 %103 to i64
  %105 = getelementptr inbounds [8 x %struct.AttrNameMap], ptr @attr_names, i64 0, i64 %104
  %106 = getelementptr inbounds nuw %struct.AttrNameMap, ptr %105, i32 0, i32 3
  %107 = getelementptr inbounds nuw %struct.Range, ptr %106, i32 0, i32 0
  %108 = load i32, ptr %107, align 8, !tbaa !70
  %109 = load i32, ptr %14, align 4, !tbaa !9
  %110 = sext i32 %109 to i64
  %111 = getelementptr inbounds [8 x %struct.AttrNameMap], ptr @attr_names, i64 0, i64 %110
  %112 = getelementptr inbounds nuw %struct.AttrNameMap, ptr %111, i32 0, i32 3
  %113 = getelementptr inbounds nuw %struct.Range, ptr %112, i32 0, i32 1
  %114 = load i32, ptr %113, align 4, !tbaa !71
  %115 = load i64, ptr %17, align 8, !tbaa !67
  call void (ptr, i32, ptr, ...) @av_log(ptr noundef %101, i32 noundef 16, ptr noundef @.str.5, ptr noundef %102, i32 noundef %108, i32 noundef %114, i64 noundef %115)
  store i32 -1094995529, ptr %6, align 4
  store i32 1, ptr %15, align 4
  br label %127

116:                                              ; preds = %90
  %117 = load i64, ptr %17, align 8, !tbaa !67
  %118 = trunc i64 %117 to i32
  %119 = load ptr, ptr %9, align 8, !tbaa !11
  %120 = load i32, ptr %14, align 4, !tbaa !9
  %121 = sext i32 %120 to i64
  %122 = getelementptr inbounds [8 x %struct.AttrNameMap], ptr @attr_names, i64 0, i64 %121
  %123 = getelementptr inbounds nuw %struct.AttrNameMap, ptr %122, i32 0, i32 2
  %124 = load i32, ptr %123, align 4, !tbaa !72
  %125 = zext i32 %124 to i64
  %126 = getelementptr inbounds nuw i8, ptr %119, i64 %125
  store i32 %118, ptr %126, align 4, !tbaa !9
  store i32 0, ptr %15, align 4
  br label %127

127:                                              ; preds = %116, %100, %76
  call void @llvm.lifetime.end.p0(i64 8, ptr %17) #8
  call void @llvm.lifetime.end.p0(i64 8, ptr %16) #8
  %128 = load i32, ptr %15, align 4
  switch i32 %128, label %176 [
    i32 0, label %129
  ]

129:                                              ; preds = %127
  br label %158

130:                                              ; preds = %56
  %131 = load i32, ptr %14, align 4, !tbaa !9
  %132 = sext i32 %131 to i64
  %133 = getelementptr inbounds [8 x %struct.AttrNameMap], ptr @attr_names, i64 0, i64 %132
  %134 = getelementptr inbounds nuw %struct.AttrNameMap, ptr %133, i32 0, i32 1
  %135 = load i16, ptr %134, align 8, !tbaa !66
  %136 = zext i16 %135 to i32
  %137 = icmp eq i32 %136, 1
  br i1 %137, label %138, label %157

138:                                              ; preds = %130
  call void @llvm.lifetime.start.p0(i64 8, ptr %18) #8
  %139 = load ptr, ptr %11, align 8, !tbaa !13
  %140 = call noalias ptr @av_strdup(ptr noundef %139)
  store ptr %140, ptr %18, align 8, !tbaa !13
  %141 = load ptr, ptr %18, align 8, !tbaa !13
  %142 = icmp ne ptr %141, null
  br i1 %142, label %144, label %143

143:                                              ; preds = %138
  store i32 -12, ptr %6, align 4
  store i32 1, ptr %15, align 4
  br label %154

144:                                              ; preds = %138
  %145 = load ptr, ptr %18, align 8, !tbaa !13
  %146 = load ptr, ptr %9, align 8, !tbaa !11
  %147 = load i32, ptr %14, align 4, !tbaa !9
  %148 = sext i32 %147 to i64
  %149 = getelementptr inbounds [8 x %struct.AttrNameMap], ptr @attr_names, i64 0, i64 %148
  %150 = getelementptr inbounds nuw %struct.AttrNameMap, ptr %149, i32 0, i32 2
  %151 = load i32, ptr %150, align 4, !tbaa !72
  %152 = zext i32 %151 to i64
  %153 = getelementptr inbounds nuw i8, ptr %146, i64 %152
  store ptr %145, ptr %153, align 8, !tbaa !13
  store i32 0, ptr %15, align 4
  br label %154

154:                                              ; preds = %144, %143
  call void @llvm.lifetime.end.p0(i64 8, ptr %18) #8
  %155 = load i32, ptr %15, align 4
  switch i32 %155, label %176 [
    i32 0, label %156
  ]

156:                                              ; preds = %154
  br label %157

157:                                              ; preds = %156, %130
  br label %158

158:                                              ; preds = %157, %129
  br label %159

159:                                              ; preds = %158, %47
  br label %160

160:                                              ; preds = %159
  %161 = load i32, ptr %14, align 4, !tbaa !9
  %162 = add nsw i32 %161, 1
  store i32 %162, ptr %14, align 4, !tbaa !9
  br label %40, !llvm.loop !73

163:                                              ; preds = %40
  %164 = load ptr, ptr %10, align 8, !tbaa !13
  %165 = call i32 @strcmp(ptr noundef %164, ptr noundef @.str.6) #9
  %166 = icmp ne i32 %165, 0
  br i1 %166, label %174, label %167

167:                                              ; preds = %163
  %168 = load ptr, ptr %9, align 8, !tbaa !11
  %169 = getelementptr inbounds nuw %struct.PayloadContext, ptr %168, i32 0, i32 0
  %170 = load i32, ptr %169, align 8, !tbaa !75
  %171 = sext i32 %170 to i64
  %172 = load ptr, ptr %12, align 8, !tbaa !59
  %173 = getelementptr inbounds nuw %struct.AVCodecParameters, ptr %172, i32 0, i32 8
  store i64 %171, ptr %173, align 8, !tbaa !76
  br label %174

174:                                              ; preds = %167, %163
  br label %175

175:                                              ; preds = %174, %34
  store i32 0, ptr %6, align 4
  store i32 1, ptr %15, align 4
  br label %176

176:                                              ; preds = %175, %154, %127, %31
  call void @llvm.lifetime.end.p0(i64 4, ptr %14) #8
  call void @llvm.lifetime.end.p0(i64 4, ptr %13) #8
  call void @llvm.lifetime.end.p0(i64 8, ptr %12) #8
  %177 = load i32, ptr %6, align 4
  ret i32 %177
}