; Function Attrs: nounwind uwtable
define internal range(i32 -2147483648, 1) i32 @parse_fmtp(ptr noundef %0, ptr noundef readonly captures(none) %1, ptr noundef captures(none) %2, ptr noundef %3, ptr noundef %4) #0 {
  %6 = alloca ptr, align 8
  %7 = getelementptr inbounds nuw i8, ptr %1, i64 16
  %8 = load ptr, ptr %7, align 8, !tbaa !55
  %9 = tail call i32 @strcmp(ptr noundef nonnull dereferenceable(1) %3, ptr noundef nonnull dereferenceable(7) @.str.3) #8
  %.not = icmp eq i32 %9, 0
  br i1 %.not, label %10, label %17

10:                                               ; preds = %5
  %11 = tail call i32 @ff_hex_to_data(ptr noundef null, ptr noundef %4) #7
  %12 = tail call i32 @ff_alloc_extradata(ptr noundef %8, i32 noundef %11) #7
  %13 = icmp slt i32 %12, 0
  br i1 %13, label %parse_fmtp_config.exit.thread, label %parse_fmtp_config.exit

parse_fmtp_config.exit:                           ; preds = %10
  %14 = getelementptr inbounds nuw i8, ptr %8, i64 16
  %15 = load ptr, ptr %14, align 8, !tbaa !56
  %16 = tail call i32 @ff_hex_to_data(ptr noundef %15, ptr noundef %4) #7
  br label %17

17:                                               ; preds = %parse_fmtp_config.exit, %5
  %18 = getelementptr inbounds nuw i8, ptr %8, i64 4
  %19 = load i32, ptr %18, align 4, !tbaa !59
  %20 = icmp eq i32 %19, 86018
  br i1 %20, label %.preheader, label %parse_fmtp_config.exit.thread

.preheader:                                       ; preds = %17, %54
  %indvars.iv = phi i64 [ %indvars.iv.next, %54 ], [ 0, %17 ]
  %21 = phi ptr [ %56, %54 ], [ @.str.6, %17 ]
  %22 = phi ptr [ %55, %54 ], [ @attr_names, %17 ]
  %23 = tail call i32 @av_strcasecmp(ptr noundef nonnull %3, ptr noundef nonnull %21) #7
  %.not52 = icmp eq i32 %23, 0
  br i1 %.not52, label %24, label %54

24:                                               ; preds = %.preheader
  %25 = getelementptr inbounds nuw i8, ptr %22, i64 8
  %26 = load i16, ptr %25, align 8, !tbaa !60
  switch i16 %26, label %54 [
    i16 0, label %27
    i16 1, label %47
  ]

27:                                               ; preds = %24
  call void @llvm.lifetime.start.p0(i64 8, ptr nonnull %6) #7
  store ptr null, ptr %6, align 8, !tbaa !26
  %28 = call i64 @strtoll(ptr noundef %4, ptr noundef nonnull %6, i32 noundef 10) #7
  %29 = load ptr, ptr %6, align 8, !tbaa !26
  %30 = icmp eq ptr %29, %4
  br i1 %30, label %33, label %31

31:                                               ; preds = %27
  %32 = load i8, ptr %29, align 1, !tbaa !45
  %.not54 = icmp eq i8 %32, 0
  br i1 %.not54, label %34, label %33

33:                                               ; preds = %31, %27
  tail call void (ptr, i32, ptr, ...) @av_log(ptr noundef %0, i32 noundef 16, ptr noundef nonnull @.str.4, ptr noundef nonnull %3, ptr noundef %4) #7
  br label %.thread

34:                                               ; preds = %31
  %35 = getelementptr inbounds nuw i8, ptr %22, i64 16
  %36 = load i32, ptr %35, align 8, !tbaa !64
  %37 = sext i32 %36 to i64
  %38 = icmp slt i64 %28, %37
  %.phi.trans.insert = getelementptr inbounds nuw i8, ptr %22, i64 20
  %.pre = load i32, ptr %.phi.trans.insert, align 4, !tbaa !65
  %39 = sext i32 %.pre to i64
  %40 = icmp sgt i64 %28, %39
  %or.cond = select i1 %38, i1 true, i1 %40
  br i1 %or.cond, label %split, label %41

split:                                            ; preds = %34
  tail call void (ptr, i32, ptr, ...) @av_log(ptr noundef %0, i32 noundef 16, ptr noundef nonnull @.str.5, ptr noundef nonnull %3, i32 noundef %36, i32 noundef %.pre, i64 noundef %28) #7
  br label %.thread

.thread:                                          ; preds = %33, %split
  call void @llvm.lifetime.end.p0(i64 8, ptr nonnull %6) #7
  br label %parse_fmtp_config.exit.thread

41:                                               ; preds = %34
  %42 = trunc nsw i64 %28 to i32
  %43 = getelementptr inbounds nuw i8, ptr %22, i64 12
  %44 = load i32, ptr %43, align 4, !tbaa !66
  %45 = zext i32 %44 to i64
  %46 = getelementptr inbounds nuw i8, ptr %2, i64 %45
  store i32 %42, ptr %46, align 4, !tbaa !53
  call void @llvm.lifetime.end.p0(i64 8, ptr nonnull %6) #7
  br label %54

47:                                               ; preds = %24
  %48 = tail call noalias ptr @av_strdup(ptr noundef %4) #7
  %.not53.not = icmp eq ptr %48, null
  br i1 %.not53.not, label %parse_fmtp_config.exit.thread, label %49

49:                                               ; preds = %47
  %50 = getelementptr inbounds nuw i8, ptr %22, i64 12
  %51 = load i32, ptr %50, align 4, !tbaa !66
  %52 = zext i32 %51 to i64
  %53 = getelementptr inbounds nuw i8, ptr %2, i64 %52
  store ptr %48, ptr %53, align 8, !tbaa !26
  br label %54

54:                                               ; preds = %49, %41, %24, %.preheader
  %indvars.iv.next = add nuw nsw i64 %indvars.iv, 1
  %55 = getelementptr inbounds nuw [8 x %struct.AttrNameMap], ptr @attr_names, i64 0, i64 %indvars.iv.next
  %56 = load ptr, ptr %55, align 8, !tbaa !67
  %exitcond = icmp eq i64 %indvars.iv.next, 7
  br i1 %exitcond, label %57, label %.preheader, !llvm.loop !68

57:                                               ; preds = %54
  %58 = tail call i32 @strcmp(ptr noundef nonnull dereferenceable(1) %3, ptr noundef nonnull dereferenceable(8) @.str.6) #8
  %.not51 = icmp eq i32 %58, 0
  br i1 %.not51, label %59, label %parse_fmtp_config.exit.thread

59:                                               ; preds = %57
  %60 = load i32, ptr %2, align 8, !tbaa !69
  %61 = sext i32 %60 to i64
  %62 = getelementptr inbounds nuw i8, ptr %8, i64 48
  store i64 %61, ptr %62, align 8, !tbaa !70
  br label %parse_fmtp_config.exit.thread

parse_fmtp_config.exit.thread:                    ; preds = %47, %10, %.thread, %17, %59, %57
  %.0 = phi i32 [ 0, %57 ], [ 0, %59 ], [ 0, %17 ], [ -1094995529, %.thread ], [ %12, %10 ], [ -12, %47 ]
  ret i32 %.0
}